; Function Attrs: nounwind sspstrong uwtable
define internal noundef i32 @inspect_i(i64 noundef %0, i64 noundef %1, i64 noundef %2) #2 {
  %4 = icmp eq i64 %1, 0
  %5 = and i64 %1, 7
  %6 = icmp ne i64 %5, 0
  %7 = or i1 %4, %6
  br i1 %7, label %11, label %8

8:                                                ; preds = %3
  %9 = inttoptr i64 %1 to ptr
  %10 = getelementptr inbounds nuw i8, ptr %9, i64 8
  br label %rb_class_of.exit

11:                                               ; preds = %3
  switch i64 %1, label %14 [
    i64 0, label %rb_class_of.exit
    i64 4, label %12
    i64 20, label %13
  ]

12:                                               ; preds = %11
  br label %rb_class_of.exit

13:                                               ; preds = %11
  br label %rb_class_of.exit

14:                                               ; preds = %11
  %15 = and i64 %1, 1
  %.not.i = icmp eq i64 %15, 0
  br i1 %.not.i, label %16, label %rb_class_of.exit

16:                                               ; preds = %14
  %17 = and i64 %1, 254
  %18 = icmp eq i64 %17, 12
  %spec.select.i = select i1 %18, ptr @rb_cSymbol, ptr @rb_cFloat
  br label %rb_class_of.exit

rb_class_of.exit:                                 ; preds = %8, %11, %12, %13, %14, %16
  %.0.in.i = phi ptr [ @rb_cNilClass, %12 ], [ @rb_cTrueClass, %13 ], [ %10, %8 ], [ @rb_cFalseClass, %11 ], [ @rb_cInteger, %14 ], [ %spec.select.i, %16 ]
  %.0.i = load i64, ptr %.0.in.i, align 8, !tbaa !7
  %19 = icmp eq i64 %.0.i, 0
  br i1 %19, label %39, label %20

20:                                               ; preds = %rb_class_of.exit
  %21 = tail call i32 @rb_is_instance_id(i64 noundef %0) #28
  %.not = icmp eq i32 %21, 0
  br i1 %.not, label %39, label %22

22:                                               ; preds = %20
  %23 = inttoptr i64 %2 to ptr
  %24 = load i64, ptr %23, align 8, !tbaa !24, !noalias !113
  %25 = and i64 %24, 8192
  %.not.i.i = icmp eq i64 %25, 0
  %26 = getelementptr inbounds nuw i8, ptr %23, i64 24
  br i1 %.not.i.i, label %RSTRING_PTR.exit, label %RSTRING_PTR.exit.thread

RSTRING_PTR.exit:                                 ; preds = %22
  %27 = load i8, ptr %26, align 1, !tbaa !28
  %28 = icmp eq i8 %27, 45
  br i1 %28, label %RSTRING_PTR.exit15, label %32

RSTRING_PTR.exit.thread:                          ; preds = %22
  %.sroa.2.0.copyload.i = load ptr, ptr %26, align 8
  %29 = load i8, ptr %.sroa.2.0.copyload.i, align 1, !tbaa !28
  %30 = icmp eq i8 %29, 45
  br i1 %30, label %RSTRING_PTR.exit15, label %32

RSTRING_PTR.exit15:                               ; preds = %RSTRING_PTR.exit.thread, %RSTRING_PTR.exit
  %.sroa.2.0.i14 = phi ptr [ %26, %RSTRING_PTR.exit ], [ %.sroa.2.0.copyload.i, %RSTRING_PTR.exit.thread ]
  store i8 35, ptr %.sroa.2.0.i14, align 1, !tbaa !28
  %31 = tail call i64 @rb_str_cat(i64 noundef %2, ptr noundef nonnull @.str.168, i64 noundef 1) #23
  br label %34

32:                                               ; preds = %RSTRING_PTR.exit.thread, %RSTRING_PTR.exit
  %33 = tail call i64 @rb_str_cat(i64 noundef %2, ptr noundef nonnull @.str.169, i64 noundef 2) #23
  br label %34

34:                                               ; preds = %32, %RSTRING_PTR.exit15
  %35 = tail call i64 @rb_id2str(i64 noundef %0) #23
  %36 = tail call i64 (i64, ptr, ...) @rb_str_catf(i64 noundef %2, ptr noundef nonnull @.str.170, i64 noundef %35) #23
  %37 = tail call i64 @rb_inspect(i64 noundef %1)
  %38 = tail call i64 @rb_str_buf_append(i64 noundef %2, i64 noundef %37) #23
  br label %39

39:                                               ; preds = %20, %rb_class_of.exit, %34
  ret i32 0
}